; Function Attrs: mustprogress uwtable
define void @_ZN6GLArea17viewFromClipboardEv(ptr noundef nonnull align 8 dereferenceable(1676) %0) local_unnamed_addr #9 align 2 personality ptr @__gxx_personality_v0 {
  %2 = alloca %class.QString, align 8
  %3 = alloca %class.QDomDocument, align 8
  %4 = alloca %class.QString, align 8
  %5 = tail call noundef ptr @_ZN15QGuiApplication9clipboardEv()
  call void @_ZNK10QClipboard4textENS_4ModeE(ptr dead_on_unwind nonnull writable sret(%class.QString) align 8 %2, ptr noundef nonnull align 8 dereferenceable(16) %5, i32 noundef 0)
  %6 = invoke noundef ptr @_ZN7QString16fromAscii_helperEPKci(ptr noundef nonnull @.str.111, i32 noundef 9)
          to label %7 unwind label %20

7:                                                ; preds = %1
  store ptr %6, ptr %4, align 8
  invoke void @_ZN12QDomDocumentC1ERK7QString(ptr noundef nonnull align 8 dereferenceable(8) %3, ptr noundef nonnull align 8 dereferenceable(8) %4)
          to label %8 unwind label %22

8:                                                ; preds = %7
  %9 = load ptr, ptr %4, align 8
  %10 = load atomic i32, ptr %9 monotonic, align 4
  switch i32 %10, label %_ZN9QtPrivate8RefCount5derefEv.exit.i [
    i32 0, label %_ZN9QtPrivate8RefCount5derefEv.exit.thread2.i
    i32 -1, label %_ZN7QStringD2Ev.exit
  ]

_ZN9QtPrivate8RefCount5derefEv.exit.i:            ; preds = %8
  %11 = atomicrmw sub ptr %9, i32 1 seq_cst, align 4
  %.not.i = icmp eq i32 %11, 1
  br i1 %.not.i, label %_ZN9QtPrivate8RefCount5derefEv.exit._ZN9QtPrivate8RefCount5derefEv.exit.thread2_crit_edge.i, label %_ZN7QStringD2Ev.exit

_ZN9QtPrivate8RefCount5derefEv.exit._ZN9QtPrivate8RefCount5derefEv.exit.thread2_crit_edge.i: ; preds = %_ZN9QtPrivate8RefCount5derefEv.exit.i
  %.pre.i = load ptr, ptr %4, align 8
  br label %_ZN9QtPrivate8RefCount5derefEv.exit.thread2.i

_ZN9QtPrivate8RefCount5derefEv.exit.thread2.i:    ; preds = %_ZN9QtPrivate8RefCount5derefEv.exit._ZN9QtPrivate8RefCount5derefEv.exit.thread2_crit_edge.i, %8
  %12 = phi ptr [ %.pre.i, %_ZN9QtPrivate8RefCount5derefEv.exit._ZN9QtPrivate8RefCount5derefEv.exit.thread2_crit_edge.i ], [ %9, %8 ]
  call void @_ZN10QArrayData10deallocateEPS_mm(ptr noundef %12, i64 noundef 2, i64 noundef 8) #32
  br label %_ZN7QStringD2Ev.exit

_ZN7QStringD2Ev.exit:                             ; preds = %8, %_ZN9QtPrivate8RefCount5derefEv.exit.i, %_ZN9QtPrivate8RefCount5derefEv.exit.thread2.i
  %13 = invoke noundef zeroext i1 @_ZN12QDomDocument10setContentERK7QStringPS0_PiS4_(ptr noundef nonnull align 8 dereferenceable(8) %3, ptr noundef nonnull align 8 dereferenceable(8) %2, ptr noundef null, ptr noundef null, ptr noundef null)
          to label %14 unwind label %24

14:                                               ; preds = %_ZN7QStringD2Ev.exit
  invoke void @_ZN6GLArea25loadViewFromViewStateFileERK12QDomDocument(ptr noundef nonnull align 8 dereferenceable(1676) %0, ptr noundef nonnull align 8 dereferenceable(8) %3)
          to label %15 unwind label %24

15:                                               ; preds = %14
  call void @_ZN12QDomDocumentD1Ev(ptr noundef nonnull align 8 dereferenceable(8) %3) #32
  %16 = load ptr, ptr %2, align 8
  %17 = load atomic i32, ptr %16 monotonic, align 4
  switch i32 %17, label %_ZN9QtPrivate8RefCount5derefEv.exit.i6 [
    i32 0, label %_ZN9QtPrivate8RefCount5derefEv.exit.thread2.i5
    i32 -1, label %_ZN7QStringD2Ev.exit10
  ]

_ZN9QtPrivate8RefCount5derefEv.exit.i6:           ; preds = %15
  %18 = atomicrmw sub ptr %16, i32 1 seq_cst, align 4
  %.not.i7 = icmp eq i32 %18, 1
  br i1 %.not.i7, label %_ZN9QtPrivate8RefCount5derefEv.exit._ZN9QtPrivate8RefCount5derefEv.exit.thread2_crit_edge.i8, label %_ZN7QStringD2Ev.exit10

_ZN9QtPrivate8RefCount5derefEv.exit._ZN9QtPrivate8RefCount5derefEv.exit.thread2_crit_edge.i8: ; preds = %_ZN9QtPrivate8RefCount5derefEv.exit.i6
  %.pre.i9 = load ptr, ptr %2, align 8
  br label %_ZN9QtPrivate8RefCount5derefEv.exit.thread2.i5

_ZN9QtPrivate8RefCount5derefEv.exit.thread2.i5:   ; preds = %_ZN9QtPrivate8RefCount5derefEv.exit._ZN9QtPrivate8RefCount5derefEv.exit.thread2_crit_edge.i8, %15
  %19 = phi ptr [ %.pre.i9, %_ZN9QtPrivate8RefCount5derefEv.exit._ZN9QtPrivate8RefCount5derefEv.exit.thread2_crit_edge.i8 ], [ %16, %15 ]
  call void @_ZN10QArrayData10deallocateEPS_mm(ptr noundef %19, i64 noundef 2, i64 noundef 8) #32
  br label %_ZN7QStringD2Ev.exit10

_ZN7QStringD2Ev.exit10:                           ; preds = %15, %_ZN9QtPrivate8RefCount5derefEv.exit.i6, %_ZN9QtPrivate8RefCount5derefEv.exit.thread2.i5
  ret void

20:                                               ; preds = %1
  %21 = landingpad { ptr, i32 }
          cleanup
  br label %26

22:                                               ; preds = %7
  %23 = landingpad { ptr, i32 }
          cleanup
  call void @_ZN7QStringD2Ev(ptr noundef nonnull align 8 dereferenceable(8) %4) #32
  br label %26

24:                                               ; preds = %14, %_ZN7QStringD2Ev.exit
  %25 = landingpad { ptr, i32 }
          cleanup
  call void @_ZN12QDomDocumentD1Ev(ptr noundef nonnull align 8 dereferenceable(8) %3) #32
  br label %26

26:                                               ; preds = %24, %22, %20
  %.pn = phi { ptr, i32 } [ %25, %24 ], [ %23, %22 ], [ %21, %20 ]
  call void @_ZN7QStringD2Ev(ptr noundef nonnull align 8 dereferenceable(8) %2) #32
  resume { ptr, i32 } %.pn
}